target datalayout = "e-m:e-p270:32:32-p271:32:32-p272:64:64-i64:64-i128:128-f80:128-n8:16:32:64-S128"
target triple = "x86_64-pc-linux-gnu"

%struct.sview_config_t = type { ptr, ptr, ptr, ptr, ptr, ptr, ptr, i16, i16, i8, i16, i32, i32, i32, i8, i32, i32, i32, i32, [10 x ptr], [10 x %struct.page_opts_t], [10 x i8], i16, i8, i8, i8, i8, i16, i32 }
%struct.page_opts_t = type { ptr, i8, ptr, ptr }
%struct._GtkTreeIter = type { i32, ptr, ptr, ptr }
%struct.popup_info = type { ptr, ptr, i32, i32, ptr, ptr, ptr, %struct._GtkTreeIter, ptr, ptr, i32, i8, ptr, ptr, i32, ptr, ptr, i32, i32 }
%struct._GdkRectangle = type { i32, i32, i32, i32 }
%struct._GdkEventExpose = type { i32, ptr, i8, %struct._GdkRectangle, ptr, i32 }
%struct._GdkEventConfigure = type { i32, ptr, i8, i32, i32, i32, i32 }

@working_sview_config = external global %struct.sview_config_t, align 8
@popup_list = external global ptr, align 8
@default_sview_config = external global %struct.sview_config_t, align 8

; Function Attrs: nounwind uwtable
define internal i32 @_frame_callback(ptr noundef %0, ptr noundef %1, ptr noundef %2) #0 {
  %4 = alloca ptr, align 8
  %5 = alloca ptr, align 8
  %6 = alloca ptr, align 8
  %7 = alloca ptr, align 8
  %8 = alloca ptr, align 8
  store ptr %0, ptr %4, align 8
  store ptr %1, ptr %5, align 8
  store ptr %2, ptr %6, align 8
  %9 = load ptr, ptr %5, align 8
  %10 = getelementptr inbounds nuw %struct._GdkEventExpose, ptr %9, i32 0, i32 2
  %11 = load i8, ptr %10, align 8
  %12 = sext i8 %11 to i32
  %13 = icmp eq i32 %12, 0
  br i1 %13, label %14, label %43

14:                                               ; preds = %3
  %15 = load ptr, ptr %5, align 8
  %16 = getelementptr inbounds nuw %struct._GdkEventConfigure, ptr %15, i32 0, i32 5
  %17 = load i32, ptr %16, align 4
  store i32 %17, ptr getelementptr inbounds nuw (%struct.sview_config_t, ptr @default_sview_config, i32 0, i32 11), align 8
  %18 = load ptr, ptr %5, align 8
  %19 = getelementptr inbounds nuw %struct._GdkEventConfigure, ptr %18, i32 0, i32 6
  %20 = load i32, ptr %19, align 8
  store i32 %20, ptr getelementptr inbounds nuw (%struct.sview_config_t, ptr @default_sview_config, i32 0, i32 12), align 4
  %21 = load ptr, ptr %5, align 8
  %22 = getelementptr inbounds nuw %struct._GdkEventConfigure, ptr %21, i32 0, i32 5
  %23 = load i32, ptr %22, align 4
  store i32 %23, ptr getelementptr inbounds nuw (%struct.sview_config_t, ptr @working_sview_config, i32 0, i32 11), align 8
  %24 = load ptr, ptr %5, align 8
  %25 = getelementptr inbounds nuw %struct._GdkEventConfigure, ptr %24, i32 0, i32 6
  %26 = load i32, ptr %25, align 8
  store i32 %26, ptr getelementptr inbounds nuw (%struct.sview_config_t, ptr @working_sview_config, i32 0, i32 12), align 4
  call void @llvm.lifetime.start.p0(i64 8, ptr %7) #11
  %27 = load ptr, ptr @popup_list, align 8
  %28 = call ptr @list_iterator_create(ptr noundef %27)
  store ptr %28, ptr %7, align 8
  call void @llvm.lifetime.start.p0(i64 8, ptr %8) #11
  store ptr null, ptr %8, align 8
  br label %29

29:                                               ; preds = %33, %14
  %30 = load ptr, ptr %7, align 8
  %31 = call ptr @list_next(ptr noundef %30)
  store ptr %31, ptr %8, align 8
  %32 = icmp ne ptr %31, null
  br i1 %32, label %33, label %41

33:                                               ; preds = %29
  %34 = load ptr, ptr %8, align 8
  %35 = getelementptr inbounds nuw %struct.popup_info, ptr %34, i32 0, i32 12
  %36 = load ptr, ptr %35, align 8
  %37 = call i64 @gtk_window_get_type() #12
  %38 = call ptr @g_type_check_instance_cast(ptr noundef %36, i64 noundef %37)
  %39 = load i32, ptr getelementptr inbounds nuw (%struct.sview_config_t, ptr @working_sview_config, i32 0, i32 11), align 8
  %40 = load i32, ptr getelementptr inbounds nuw (%struct.sview_config_t, ptr @working_sview_config, i32 0, i32 12), align 4
  call void @gtk_window_resize(ptr noundef %38, i32 noundef %39, i32 noundef %40)
  br label %29, !llvm.loop !42

41:                                               ; preds = %29
  %42 = load ptr, ptr %7, align 8
  call void @list_iterator_destroy(ptr noundef %42)
  call void @llvm.lifetime.end.p0(i64 8, ptr %8) #11
  call void @llvm.lifetime.end.p0(i64 8, ptr %7) #11
  br label %43

43:                                               ; preds = %41, %3
  ret i32 0
}