; Function Attrs: nounwind uwtable
define internal noundef i32 @_frame_callback(ptr readnone captures(none) %0, ptr noundef readonly captures(none) %1, ptr readnone captures(none) %2) #2 {
  %4 = getelementptr inbounds nuw i8, ptr %1, i64 16
  %5 = load i8, ptr %4, align 8
  %6 = icmp eq i8 %5, 0
  br i1 %6, label %7, label %26

7:                                                ; preds = %3
  %8 = getelementptr inbounds nuw i8, ptr %1, i64 28
  %9 = load i32, ptr %8, align 4
  store i32 %9, ptr getelementptr inbounds nuw (i8, ptr @default_sview_config, i64 64), align 8
  %10 = getelementptr inbounds nuw i8, ptr %1, i64 32
  %11 = load i32, ptr %10, align 8
  store i32 %11, ptr getelementptr inbounds nuw (i8, ptr @default_sview_config, i64 68), align 4
  %12 = load i32, ptr %8, align 4
  store i32 %12, ptr getelementptr inbounds nuw (i8, ptr @working_sview_config, i64 64), align 8
  %13 = load i32, ptr %10, align 8
  store i32 %13, ptr getelementptr inbounds nuw (i8, ptr @working_sview_config, i64 68), align 4
  %14 = load ptr, ptr @popup_list, align 8
  %15 = tail call ptr @list_iterator_create(ptr noundef %14) #16
  %16 = tail call ptr @list_next(ptr noundef %15) #16
  %.not8 = icmp eq ptr %16, null
  br i1 %.not8, label %._crit_edge, label %.lr.ph

.lr.ph:                                           ; preds = %7
  %17 = tail call i64 @gtk_window_get_type() #17
  br label %18

18:                                               ; preds = %.lr.ph, %18
  %19 = phi ptr [ %16, %.lr.ph ], [ %25, %18 ]
  %20 = getelementptr inbounds nuw i8, ptr %19, i64 104
  %21 = load ptr, ptr %20, align 8
  %22 = tail call ptr @g_type_check_instance_cast(ptr noundef %21, i64 noundef %17) #16
  %23 = load i32, ptr getelementptr inbounds nuw (i8, ptr @working_sview_config, i64 64), align 8
  %24 = load i32, ptr getelementptr inbounds nuw (i8, ptr @working_sview_config, i64 68), align 4
  tail call void @gtk_window_resize(ptr noundef %22, i32 noundef %23, i32 noundef %24) #16
  %25 = tail call ptr @list_next(ptr noundef %15) #16
  %.not = icmp eq ptr %25, null
  br i1 %.not, label %._crit_edge, label %18, !llvm.loop !41

._crit_edge:                                      ; preds = %18, %7
  tail call void @list_iterator_destroy(ptr noundef %15) #16
  br label %26

26:                                               ; preds = %._crit_edge, %3
  ret i32 0
}